BL51 BANKED LINKER/LOCATER V4.13                                                        05/31/2014  20:56:57  PAGE 1


BL51 BANKED LINKER/LOCATER V4.13, INVOKED BY:
C:\KEIL\C51\BIN\BL51.EXE test.obj TO test RAMSIZE (256)


MEMORY MODEL: LARGE WITH FLOATING POINT ARITHMETIC


INPUT MODULES INCLUDED:
  test.obj (TEST)
  C:\KEIL\C51\LIB\C51FPL.LIB (?C?FPADD)
  C:\KEIL\C51\LIB\C51FPL.LIB (?C?FPDIV)
  C:\KEIL\C51\LIB\C51FPL.LIB (?C?FCAST)
  C:\KEIL\C51\LIB\C51FPL.LIB (PRINTF)
  C:\KEIL\C51\LIB\C51FPL.LIB (POW)
  C:\KEIL\C51\LIB\C51FPL.LIB (?C?FPGETOPN)
  C:\KEIL\C51\LIB\C51FPL.LIB (?C?FPMUL)
  C:\KEIL\C51\LIB\C51FPL.LIB (?C?FPCMP)
  C:\KEIL\C51\LIB\C51FPL.LIB (?C?FPNEG)
  C:\KEIL\C51\LIB\C51FPL.LIB (?C?CASTF)
  C:\KEIL\C51\LIB\C51FPL.LIB (?C?FPROUND)
  C:\KEIL\C51\LIB\C51FPL.LIB (?C?FPCONVERT)
  C:\KEIL\C51\LIB\C51FPL.LIB (EXP)
  C:\KEIL\C51\LIB\C51FPL.LIB (LOG)
  C:\KEIL\C51\LIB\C51FPL.LIB (?C?FTNPWR)
  C:\KEIL\C51\LIB\C51FPL.LIB (?C?FPSERIES)
  C:\KEIL\C51\LIB\C51L.LIB (?C_STARTUP)
  C:\KEIL\C51\LIB\C51L.LIB (?C?COPY)
  C:\KEIL\C51\LIB\C51L.LIB (?C?CLDPTR)
  C:\KEIL\C51\LIB\C51L.LIB (?C?CLDOPTR)
  C:\KEIL\C51\LIB\C51L.LIB (?C?CSTPTR)
  C:\KEIL\C51\LIB\C51L.LIB (?C?CSTOPTR)
  C:\KEIL\C51\LIB\C51L.LIB (?C?LNEG)
  C:\KEIL\C51\LIB\C51L.LIB (?C?LLDCODE)
  C:\KEIL\C51\LIB\C51L.LIB (?C?LLDXDATA0)
  C:\KEIL\C51\LIB\C51L.LIB (?C?LLDCODE0)
  C:\KEIL\C51\LIB\C51L.LIB (?C?LSTXDATA)
  C:\KEIL\C51\LIB\C51L.LIB (?C?LSTKXDATA)
  C:\KEIL\C51\LIB\C51L.LIB (?C?PLDIXDATA)
  C:\KEIL\C51\LIB\C51L.LIB (?C?PSTXDATA)
  C:\KEIL\C51\LIB\C51L.LIB (?C?CCASE)
  C:\KEIL\C51\LIB\C51L.LIB (PUTCHAR)
  C:\KEIL\C51\LIB\C51L.LIB (STRLEN)
  C:\KEIL\C51\LIB\C51L.LIB (?C?MEMSET)
  C:\KEIL\C51\LIB\C51L.LIB (?C_INIT)


LINK MAP OF MODULE:  test (TEST)


            TYPE    BASE      LENGTH    RELOCATION   SEGMENT NAME
            -----------------------------------------------------

            * * * * * * *   D A T A   M E M O R Y   * * * * * * *
            REG     0000H     0008H     ABSOLUTE     "REG BANK 0"
            DATA    0008H     0005H     UNIT         _DATA_GROUP_
            IDATA   000DH     0008H     UNIT         ?ID?TEST
                    0015H     000BH                  *** GAP ***
            BIT     0020H.0   0001H.1   UNIT         _BIT_GROUP_
BL51 BANKED LINKER/LOCATER V4.13                                                      05/31/2014  20:56:57  PAGE 2


                    0021H.1   0000H.7                *** GAP ***
            IDATA   0022H     0001H     UNIT         ?STACK

            * * * * * * *  X D A T A   M E M O R Y  * * * * * * *
            XDATA   0000H     008DH     UNIT         ?XD?TEST
            XDATA   008DH     0030H     UNIT         _XDATA_GROUP_
            XDATA   00BDH     000CH     UNIT         ?XD?_CONNECTGPRS?TEST
            XDATA   00C9H     0003H     UNIT         ?XD?_SERIALREVDATA?TEST

            * * * * * * *   C O D E   M E M O R Y   * * * * * * *
            CODE    0000H     0003H     ABSOLUTE     
            CODE    0003H     001FH     UNIT         ?PR?LCDINIT?TEST
                    0022H     0001H                  *** GAP ***
            CODE    0023H     0003H     ABSOLUTE     
            CODE    0026H     0833H     UNIT         ?C?LIB_CODE
            CODE    0859H     0483H     UNIT         ?PR?PRINTF?PRINTF
            CODE    0CDCH     0148H     UNIT         ?PR?RH?TEST
            CODE    0E24H     012BH     UNIT         ?CO?TEST
            CODE    0F4FH     012BH     UNIT         ?PR?_POW?POW
            CODE    107AH     0129H     UNIT         ?PR?LOG?LOG
            CODE    11A3H     00D7H     UNIT         ?PR?_CONNECTGPRS?TEST
            CODE    127AH     00B5H     UNIT         ?PR?_TODEM?TEST
            CODE    132FH     00A4H     UNIT         ?PR?_BINTODEM?TEST
            CODE    13D3H     009AH     UNIT         ?PR?EXP?EXP
            CODE    146DH     008CH     UNIT         ?C_C51STARTUP
            CODE    14F9H     006DH     UNIT         ?PR?_SERIALPUTSTRING?TEST
            CODE    1566H     006AH     UNIT         ?PR?_SERIALREVDATA?TEST
            CODE    15D0H     005BH     UNIT         ?PR?DHTCOM?TEST
            CODE    162BH     004DH     UNIT         ?PR?SERIALINT?TEST
            CODE    1678H     004CH     UNIT         ?PR?MAIN?TEST
            CODE    16C4H     004CH     UNIT         ?C_INITSEG
            CODE    1710H     0034H     UNIT         ?PR?SENDSMS?TEST
            CODE    1744H     002FH     UNIT         ?PR?_LCDDELAY?TEST
            CODE    1773H     0027H     UNIT         ?PR?SERIALINIT?TEST
            CODE    179AH     0027H     UNIT         ?PR?PUTCHAR?PUTCHAR
            CODE    17C1H     0024H     UNIT         ?PR?_DELAY?TEST
            CODE    17E5H     0018H     UNIT         ?PR?DIALVOICECALL?TEST
            CODE    17FDH     0016H     UNIT         ?PR?DHTDELAY_10US?TEST
            CODE    1813H     0015H     UNIT         ?PR?_STRLEN?STRLEN
            CODE    1828H     000EH     UNIT         ?PR?_DHTDELAY?TEST
            CODE    1836H     0009H     UNIT         ?PR?SERIALPUTEND?TEST
            CODE    183FH     0008H     UNIT         ?PR?_LCDWRITECOM?TEST
            CODE    1847H     0008H     UNIT         ?PR?_LCDWRITEDATA?TEST
            CODE    184FH     0008H     UNIT         ?PR?_SERIALPUTBYTE?TEST
            CODE    1857H     0006H     UNIT         ?PR?SERAILREVCHECK?TEST
            CODE    185DH     0006H     UNIT         ?PR?SERIALGETDATALEN?TEST



OVERLAY MAP OF MODULE:   test (TEST)


SEGMENT                              BIT_GROUP          DATA_GROUP          XDATA_GROUP
  +--> CALLED SEGMENT             START    LENGTH     START    LENGTH     START    LENGTH
-----------------------------------------------------------------------------------------
?C_C51STARTUP                     -----    -----      -----    -----      -----    -----
  +--> ?PR?MAIN?TEST
BL51 BANKED LINKER/LOCATER V4.13                                                      05/31/2014  20:56:57  PAGE 3


  +--> ?C_INITSEG

?PR?MAIN?TEST                     -----    -----      -----    -----      -----    -----
  +--> ?PR?LCDINIT?TEST
  +--> ?PR?SERIALINIT?TEST
  +--> ?PR?_STRLEN?STRLEN
  +--> ?PR?_LCDWRITEDATA?TEST
  +--> ?PR?RH?TEST
  +--> ?PR?_SERIALPUTSTRING?TEST

?PR?LCDINIT?TEST                  -----    -----      -----    -----      -----    -----
  +--> ?PR?_LCDWRITECOM?TEST

?PR?_LCDWRITECOM?TEST             -----    -----      -----    -----      -----    -----
  +--> ?PR?_LCDDELAY?TEST

?PR?_LCDWRITEDATA?TEST            -----    -----      -----    -----      -----    -----
  +--> ?PR?_LCDDELAY?TEST

?PR?RH?TEST                       -----    -----      -----    -----      -----    -----
  +--> ?PR?_DHTDELAY?TEST
  +--> ?PR?DHTDELAY_10US?TEST
  +--> ?PR?DHTCOM?TEST
  +--> ?PR?_BINTODEM?TEST
  +--> ?PR?_TODEM?TEST
  +--> ?CO?TEST
  +--> ?PR?PRINTF?PRINTF

?PR?DHTDELAY_10US?TEST            -----    -----      -----    -----      008DH    0001H

?PR?DHTCOM?TEST                   -----    -----      -----    -----      -----    -----
  +--> ?PR?DHTDELAY_10US?TEST

?PR?_BINTODEM?TEST                -----    -----      -----    -----      008DH    0007H
  +--> ?PR?_POW?POW

?PR?_POW?POW                      -----    -----      -----    -----      0095H    000AH
  +--> ?PR?LOG?LOG
  +--> ?PR?EXP?EXP

?PR?LOG?LOG                       0020H.0  0000H.1    -----    -----      009FH    0004H

?PR?_TODEM?TEST                   -----    -----      -----    -----      008DH    0008H
  +--> ?PR?_POW?POW

?PR?PRINTF?PRINTF                 0020H.0  0001H.1    0008H    0005H      008DH    0030H
  +--> ?PR?PUTCHAR?PUTCHAR

?PR?_SERIALPUTSTRING?TEST         -----    -----      -----    -----      008DH    0005H
  +--> ?PR?_STRLEN?STRLEN
  +--> ?PR?_SERIALPUTBYTE?TEST



SYMBOL TABLE OF MODULE:  test (TEST)

  VALUE           TYPE          NAME
BL51 BANKED LINKER/LOCATER V4.13                                                      05/31/2014  20:56:57  PAGE 4


  ----------------------------------

  -------         MODULE        TEST
  C:0000H         SYMBOL        _ICE_DUMMY_
  C:17FDH         PUBLIC        DHTDelay_10us
  X:0000H         PUBLIC        DHTcheckdata
  D:0080H         PUBLIC        P0
  I:000DH         PUBLIC        concentration
  D:0090H         PUBLIC        P1
  C:1710H         PUBLIC        sendsms
  D:00A0H         PUBLIC        P2
  D:00B0H         PUBLIC        P3
  B:00B0H.4       PUBLIC        T0
  B:00D0H.6       PUBLIC        AC
  B:00B0H.5       PUBLIC        T1
  X:0001H         PUBLIC        DHT_data_H
  B:0090H.0       PUBLIC        T2
  B:00A8H.7       PUBLIC        EA
  B:00B0H.4       PUBLIC        lcden
  X:0002H         PUBLIC        DHT_data_L
  C:0EC7H         PUBLIC        str1
  C:0ED8H         PUBLIC        str2
  C:0EE9H         PUBLIC        str3
  D:00A8H         PUBLIC        IE
  B:00A0H.2       PUBLIC        P2_2
  C:184FH         PUBLIC        _SerialPutByte
  B:00C8H.6       PUBLIC        EXF2
  B:00B0H.7       PUBLIC        RD
  B:00A8H.4       PUBLIC        ES
  X:0003H         PUBLIC        DHTcheckdata_temp
  D:00B8H         PUBLIC        IP
  C:0CDCH         PUBLIC        RH
  X:0004H         PUBLIC        DHTtemp
  B:00B0H.5       PUBLIC        lcdrs
  B:0098H.0       PUBLIC        RI
  X:0005H         PUBLIC        flag
  B:00B0H.2       PUBLIC        INT0
  B:00D0H.7       PUBLIC        CY
  B:0098H.1       PUBLIC        TI
  B:00B0H.3       PUBLIC        INT1
  X:0006H         PUBLIC        sensor
  X:0010H         PUBLIC        DHT_data_H_temp
  X:0011H         PUBLIC        value
  X:0039H         PUBLIC        DHTRH_data_H
  I:0011H         PUBLIC        ratio
  X:003AH         PUBLIC        DHT_data_L_temp
  B:00B8H.4       PUBLIC        PS
  C:0EF6H         PUBLIC        s1
  C:185DH         PUBLIC        SerialGetDataLen
  B:0090H.1       PUBLIC        T2EX
  X:003BH         PUBLIC        buff
  X:004FH         PUBLIC        DHTRH_data_L
  C:0F02H         PUBLIC        s2
  B:00D0H.2       PUBLIC        OV
  C:0F0FH         PUBLIC        s3
  C:1753H         PUBLIC        _LCDDelay
  C:1678H         PUBLIC        main
BL51 BANKED LINKER/LOCATER V4.13                                                      05/31/2014  20:56:57  PAGE 5


  X:0050H         PUBLIC        s4
  C:0F48H         PUBLIC        s5
  B:00C8H.1       PUBLIC        C_T2
  B:00B0H.6       PUBLIC        WR
  B:00A0H.7       PUBLIC        duan
  X:0051H         PUBLIC        count
  B:00C8H.5       PUBLIC        RCLK
  B:00C8H.4       PUBLIC        TCLK
  C:162BH         PUBLIC        serialInt
  D:0099H         PUBLIC        SBUF
  C:1828H         PUBLIC        _DHTDelay
  D:0098H         PUBLIC        SCON
  D:0089H         PUBLIC        TMOD
  D:0088H         PUBLIC        TCON
  X:0052H         PUBLIC        temperature
  C:1836H         PUBLIC        SerialPutEnd
  X:0056H         PUBLIC        DHTRH_data_H_temp
  C:127AH         PUBLIC        _ToDem
  X:0057H         PUBLIC        DHTRH_data_L_temp
  B:0088H.1       PUBLIC        IE0
  X:0058H         PUBLIC        DHTcomdata
  C:1847H         PUBLIC        _LCDWriteData
  B:0088H.3       PUBLIC        IE1
  X:0059H         PUBLIC        len
  C:15D0H         PUBLIC        DHTCOM
  B:00C8H.0       PUBLIC        CP_RL2
  B:00A0H.6       PUBLIC        wei
  B:00A8H.1       PUBLIC        ET0
  B:00A8H.3       PUBLIC        ET1
  B:0088H.5       PUBLIC        TF0
  B:00A8H.5       PUBLIC        ET2
  B:0088H.7       PUBLIC        TF1
  B:00C8H.7       PUBLIC        TF2
  B:0098H.2       PUBLIC        RB8
  D:008CH         PUBLIC        TH0
  X:005AH         PUBLIC        lowpulseoccupancy
  B:00A8H.0       PUBLIC        EX0
  B:0088H.0       PUBLIC        IT0
  D:008DH         PUBLIC        TH1
  B:0098H.3       PUBLIC        TB8
  B:00A8H.2       PUBLIC        EX1
  B:0088H.2       PUBLIC        IT1
  B:00D0H.0       PUBLIC        P
  B:0098H.7       PUBLIC        SM0
  D:008AH         PUBLIC        TL0
  B:0098H.6       PUBLIC        SM1
  D:008BH         PUBLIC        TL1
  B:0098H.5       PUBLIC        SM2
  B:00B8H.1       PUBLIC        PT0
  B:00B8H.3       PUBLIC        PT1
  B:00D0H.3       PUBLIC        RS0
  B:00B8H.5       PUBLIC        PT2
  B:0088H.4       PUBLIC        TR0
  B:00D0H.4       PUBLIC        RS1
  B:0088H.6       PUBLIC        TR1
  B:00C8H.2       PUBLIC        TR2
  B:00B8H.0       PUBLIC        PX0
BL51 BANKED LINKER/LOCATER V4.13                                                      05/31/2014  20:56:57  PAGE 6


  B:00B8H.2       PUBLIC        PX1
  X:005EH         PUBLIC        a
  X:005FH         PUBLIC        starttime
  C:183FH         PUBLIC        _LCDWriteCom
  B:00C8H.3       PUBLIC        EXEN2
  B:0098H.4       PUBLIC        REN
  D:00C8H         PUBLIC        T2CON
  X:0063H         PUBLIC        i
  C:0003H         PUBLIC        LCDInit
  X:0064H         PUBLIC        duration
  C:11A3H         PUBLIC        _ConnectGPRS
  B:00B0H.0       PUBLIC        RXD
  C:1566H         PUBLIC        _SerialRevData
  B:00B0H.1       PUBLIC        TXD
  C:17C5H         PUBLIC        _delay
  X:0068H         PUBLIC        humidity
  C:17E5H         PUBLIC        DialVoiceCall
  C:1857H         PUBLIC        SerailRevCheck
  B:00D0H.5       PUBLIC        F0
  C:132FH         PUBLIC        _binToDem
  C:0F4BH         PUBLIC        sampletime_ms
  C:14FFH         PUBLIC        _SerialPutString
  C:1773H         PUBLIC        SerialInit
  D:00D0H         PUBLIC        PSW
  X:006CH         PUBLIC        DHTFLAG
  X:006DH         PUBLIC        inbuff
  -------         PROC          L?0092
  -------         ENDPROC       L?0092
  -------         PROC          _LCDDELAY
  D:0006H         SYMBOL        n
  -------         DO            n
  D:0006H         SYMBOL        x
  D:0004H         SYMBOL        y
  -------         ENDDO         y
  C:1753H         LINE#         8
  C:1753H         LINE#         9
  C:1753H         LINE#         11
  C:175EH         LINE#         12
  C:1772H         LINE#         13
  -------         ENDPROC       _LCDDELAY
  -------         PROC          _LCDWRITECOM
  D:0007H         SYMBOL        com
  C:183FH         LINE#         15
  C:183FH         LINE#         16
  C:183FH         LINE#         17
  C:1841H         LINE#         18
  C:1841H         LINE#         19
  C:1841H         LINE#         20
  C:1841H         LINE#         21
  C:1844H         LINE#         22
  C:1846H         LINE#         23
  -------         ENDPROC       _LCDWRITECOM
  -------         PROC          _LCDWRITEDATA
  D:0007H         SYMBOL        value
  C:1847H         LINE#         24
  C:1847H         LINE#         25
  C:1847H         LINE#         26
BL51 BANKED LINKER/LOCATER V4.13                                                      05/31/2014  20:56:57  PAGE 7


  C:1849H         LINE#         27
  C:1849H         LINE#         28
  C:1849H         LINE#         29
  C:1849H         LINE#         30
  C:184CH         LINE#         31
  C:184EH         LINE#         32
  -------         ENDPROC       _LCDWRITEDATA
  -------         PROC          LCDINIT
  C:0003H         LINE#         34
  C:0003H         LINE#         35
  C:0003H         LINE#         36
  C:0005H         LINE#         37
  C:0007H         LINE#         38
  C:0009H         LINE#         40
  C:000EH         LINE#         41
  C:0013H         LINE#         42
  C:0018H         LINE#         43
  C:001DH         LINE#         44
  -------         ENDPROC       LCDINIT
  -------         PROC          SERIALINIT
  C:1773H         LINE#         8
  C:1773H         LINE#         9
  C:1773H         LINE#         10
  C:1776H         LINE#         11
  C:1779H         LINE#         12
  C:177CH         LINE#         13
  C:177EH         LINE#         14
  C:1781H         LINE#         15
  C:1783H         LINE#         17
  C:1785H         LINE#         18
  C:1787H         LINE#         19
  C:1789H         LINE#         20
  C:178BH         LINE#         21
  C:178DH         LINE#         23
  -------         ENDPROC       SERIALINIT
  -------         PROC          _SERIALPUTBYTE
  D:0007H         SYMBOL        c
  C:184FH         LINE#         26
  C:184FH         LINE#         27
  C:184FH         LINE#         28
  C:1851H         LINE#         29
  C:1854H         LINE#         30
  C:1856H         LINE#         31
  -------         ENDPROC       _SERIALPUTBYTE
  -------         PROC          SERIALPUTEND
  C:1836H         LINE#         33
  C:1836H         LINE#         34
  C:1836H         LINE#         35
  C:1839H         LINE#         36
  C:183CH         LINE#         37
  C:183EH         LINE#         38
  -------         ENDPROC       SERIALPUTEND
  C:14F9H         SYMBOL        L?0094
  -------         PROC          L?0093
  -------         ENDPROC       L?0093
  C:14F9H         SYMBOL        L?0094
  -------         PROC          _SERIALPUTSTRING
BL51 BANKED LINKER/LOCATER V4.13                                                      05/31/2014  20:56:57  PAGE 8


  X:008DH         SYMBOL        puts
  -------         DO            puts
  D:0004H         SYMBOL        j
  X:0090H         SYMBOL        n
  -------         ENDDO         n
  C:14FFH         LINE#         40
  C:150AH         LINE#         41
  C:150AH         LINE#         44
  C:150CH         LINE#         45
  C:1517H         LINE#         47
  C:152DH         LINE#         48
  C:154AH         LINE#         49
  C:154FH         LINE#         51
  C:1563H         LINE#         52
  C:1565H         LINE#         53
  -------         ENDPROC       _SERIALPUTSTRING
  -------         PROC          SERIALINT
  C:162BH         LINE#         55
  C:1638H         LINE#         57
  C:163BH         LINE#         58
  C:163BH         LINE#         59
  C:163DH         LINE#         60
  C:1643H         LINE#         61
  C:164CH         LINE#         62
  C:164CH         LINE#         63
  C:165BH         LINE#         64
  C:1661H         LINE#         65
  C:1663H         LINE#         67
  C:1663H         LINE#         68
  C:1668H         LINE#         69
  C:166DH         LINE#         70
  C:166DH         LINE#         71
  C:166DH         LINE#         73
  -------         ENDPROC       SERIALINT
  -------         PROC          SERAILREVCHECK
  C:1857H         LINE#         75
  C:1857H         LINE#         76
  C:1857H         LINE#         77
  C:185CH         LINE#         78
  -------         ENDPROC       SERAILREVCHECK
  -------         PROC          _SERIALREVDATA
  X:00C9H         SYMBOL        buff
  C:1566H         LINE#         80
  C:1571H         LINE#         81
  C:1571H         LINE#         82
  C:1576H         LINE#         83
  C:1584H         LINE#         84
  C:15A5H         LINE#         85
  C:15C1H         LINE#         86
  -------         ENDPROC       _SERIALREVDATA
  -------         PROC          SERIALGETDATALEN
  C:185DH         LINE#         91
  C:185DH         LINE#         92
  C:185DH         LINE#         93
  C:1862H         LINE#         94
  -------         ENDPROC       SERIALGETDATALEN
  -------         PROC          MAIN
BL51 BANKED LINKER/LOCATER V4.13                                                      05/31/2014  20:56:57  PAGE 9


  C:1678H         LINE#         55
  C:1678H         LINE#         56
  C:1678H         LINE#         60
  C:167BH         LINE#         61
  C:167EH         LINE#         62
  C:168CH         LINE#         63
  C:169FH         LINE#         64
  C:16B6H         LINE#         68
  C:16B6H         LINE#         69
  C:16B6H         LINE#         70
  C:16B9H         LINE#         71
  C:16C2H         LINE#         81
  -------         ENDPROC       MAIN
  C:17C1H         SYMBOL        L?0091
  -------         PROC          L?0090
  -------         ENDPROC       L?0090
  C:17C1H         SYMBOL        L?0091
  -------         PROC          _DELAY
  D:0006H         SYMBOL        n
  -------         DO            n
  D:0006H         SYMBOL        x
  D:0004H         SYMBOL        y
  -------         ENDDO         y
  C:17C5H         LINE#         86
  C:17C5H         LINE#         87
  C:17C5H         LINE#         89
  C:17D0H         LINE#         90
  C:17E4H         LINE#         91
  -------         ENDPROC       _DELAY
  -------         PROC          SENDSMS
  C:1710H         LINE#         95
  C:1710H         LINE#         96
  C:1710H         LINE#         97
  C:1719H         LINE#         98
  C:171CH         LINE#         99
  C:1725H         LINE#         100
  C:172CH         LINE#         101
  C:1735H         LINE#         102
  C:1738H         LINE#         103
  C:1741H         LINE#         104
  -------         ENDPROC       SENDSMS
  -------         PROC          DIALVOICECALL
  C:17E5H         LINE#         109
  C:17E5H         LINE#         110
  C:17E5H         LINE#         111
  C:17EEH         LINE#         112
  C:17F1H         LINE#         113
  C:17FAH         LINE#         114
  -------         ENDPROC       DIALVOICECALL
  -------         PROC          _CONNECTGPRS
  X:00BDH         SYMBOL        dust
  X:00C1H         SYMBOL        t
  X:00C5H         SYMBOL        h
  C:11A3H         LINE#         119
  C:11A9H         LINE#         120
  C:11A9H         LINE#         136
  C:11B2H         LINE#         137
BL51 BANKED LINKER/LOCATER V4.13                                                      05/31/2014  20:56:57  PAGE 10


  C:11B5H         LINE#         138
  C:11BEH         LINE#         139
  C:11C1H         LINE#         140
  C:11CAH         LINE#         141
  C:11CDH         LINE#         143
  C:11F8H         LINE#         144
  C:11FBH         LINE#         145
  C:1226H         LINE#         146
  C:1229H         LINE#         147
  C:1254H         LINE#         148
  C:1257H         LINE#         149
  C:125FH         LINE#         150
  C:1262H         LINE#         151
  C:126BH         LINE#         152
  C:126EH         LINE#         153
  C:1277H         LINE#         154
  -------         ENDPROC       _CONNECTGPRS
  -------         PROC          _DHTDELAY
  D:0006H         SYMBOL        z
  -------         DO            z
  D:0007H         SYMBOL        x
  D:0006H         SYMBOL        y
  -------         ENDDO         y
  C:1828H         LINE#         159
  C:1828H         LINE#         160
  C:1828H         LINE#         162
  C:182EH         LINE#         163
  C:1835H         LINE#         164
  -------         ENDPROC       _DHTDELAY
  -------         PROC          DHTDELAY_10US
  -------         DO            DHTDELAY_10US
  X:008DH         SYMBOL        i
  -------         ENDDO         i
  C:17FDH         LINE#         166
  C:17FDH         LINE#         167
  C:17FDH         LINE#         169
  C:1803H         LINE#         170
  C:1806H         LINE#         171
  C:1809H         LINE#         172
  C:180CH         LINE#         173
  C:180FH         LINE#         174
  C:1812H         LINE#         175
  -------         ENDPROC       DHTDELAY_10US
  -------         PROC          DHTCOM
  -------         DO            DHTCOM
  D:0007H         SYMBOL        i
  -------         ENDDO         i
  C:15D0H         LINE#         177
  C:15D0H         LINE#         178
  C:15D0H         LINE#         180
  C:15D2H         LINE#         181
  C:15D2H         LINE#         183
  C:15D8H         LINE#         184
  C:15E5H         LINE#         185
  C:15E8H         LINE#         186
  C:15EBH         LINE#         187
  C:15EEH         LINE#         188
BL51 BANKED LINKER/LOCATER V4.13                                                      05/31/2014  20:56:57  PAGE 11


  C:15F3H         LINE#         189
  C:15F8H         LINE#         190
  C:15FEH         LINE#         191
  C:160BH         LINE#         192
  C:1613H         LINE#         193
  C:161CH         LINE#         194
  C:1625H         LINE#         195
  C:162AH         LINE#         196
  -------         ENDPROC       DHTCOM
  -------         PROC          _TODEM
  X:008DH         SYMBOL        x
  -------         DO            x
  X:008EH         SYMBOL        i
  X:0090H         SYMBOL        y
  X:0094H         SYMBOL        m
  -------         ENDDO         m
  C:127AH         LINE#         198
  C:127FH         LINE#         199
  C:127FH         LINE#         200
  C:1284H         LINE#         201
  C:128CH         LINE#         202
  C:1292H         LINE#         203
  C:1299H         LINE#         204
  C:12A3H         LINE#         205
  C:12ABH         LINE#         206
  C:12ABH         LINE#         207
  C:12B3H         LINE#         208
  C:12BDH         LINE#         209
  C:1301H         LINE#         210
  C:1320H         LINE#         211
  C:132EH         LINE#         212
  -------         ENDPROC       _TODEM
  -------         PROC          _BINTODEM
  X:008DH         SYMBOL        x
  -------         DO            x
  X:008EH         SYMBOL        y
  X:0092H         SYMBOL        i
  X:0093H         SYMBOL        m
  -------         ENDDO         m
  C:132FH         LINE#         215
  C:1334H         LINE#         216
  C:1334H         LINE#         217
  C:133CH         LINE#         219
  C:1342H         LINE#         220
  C:1351H         LINE#         221
  C:1351H         LINE#         222
  C:1368H         LINE#         223
  C:13BCH         LINE#         224
  C:13C4H         LINE#         225
  C:13D2H         LINE#         226
  -------         ENDPROC       _BINTODEM
  -------         PROC          RH
  C:0CDCH         LINE#         228
  C:0CDCH         LINE#         229
  C:0CDCH         LINE#         230
  C:0CDEH         LINE#         231
  C:0CE5H         LINE#         232
BL51 BANKED LINKER/LOCATER V4.13                                                      05/31/2014  20:56:57  PAGE 12


  C:0CE7H         LINE#         233
  C:0CEAH         LINE#         234
  C:0CEDH         LINE#         235
  C:0CF0H         LINE#         236
  C:0CF3H         LINE#         237
  C:0CF5H         LINE#         238
  C:0CFBH         LINE#         239
  C:0CFBH         LINE#         240
  C:0D01H         LINE#         241
  C:0D0EH         LINE#         242
  C:0D14H         LINE#         243
  C:0D21H         LINE#         244
  C:0D24H         LINE#         245
  C:0D2CH         LINE#         247
  C:0D2FH         LINE#         248
  C:0D37H         LINE#         249
  C:0D3AH         LINE#         250
  C:0D42H         LINE#         252
  C:0D44H         LINE#         253
  C:0D47H         LINE#         254
  C:0D4FH         LINE#         256
  C:0D52H         LINE#         257
  C:0D5CH         LINE#         258
  C:0D5EH         LINE#         259
  C:0D79H         LINE#         260
  C:0D7FH         LINE#         261
  C:0D7FH         LINE#         262
  C:0D84H         LINE#         263
  C:0D89H         LINE#         264
  C:0D8EH         LINE#         265
  C:0D91H         LINE#         266
  C:0D97H         LINE#         267
  C:0DBBH         LINE#         268
  C:0DE4H         LINE#         271
  C:0E23H         LINE#         272
  C:0E23H         LINE#         273
  C:0E23H         LINE#         274
  -------         ENDPROC       RH
  -------         ENDMOD        TEST

  -------         MODULE        ?C?FPADD
  C:002DH         PUBLIC        ?C?FPADD
  C:0029H         PUBLIC        ?C?FPSUB
  -------         ENDMOD        ?C?FPADD

  -------         MODULE        ?C?FPDIV
  C:0121H         PUBLIC        ?C?FPDIV
  -------         ENDMOD        ?C?FPDIV

  -------         MODULE        ?C?FCAST
  C:01C8H         PUBLIC        ?C?FCASTC
  C:01C3H         PUBLIC        ?C?FCASTI
  C:01BEH         PUBLIC        ?C?FCASTL
  -------         ENDMOD        ?C?FCAST

  -------         MODULE        PRINTF
  X:008DH         PUBLIC        ?_PRINTF?BYTE
BL51 BANKED LINKER/LOCATER V4.13                                                      05/31/2014  20:56:57  PAGE 13


  X:008DH         PUBLIC        ?_SPRINTF?BYTE
  C:08C4H         PUBLIC        _PRINTF
  C:08BEH         PUBLIC        _SPRINTF
  -------         ENDMOD        PRINTF

  -------         MODULE        POW
  X:0095H         PUBLIC        ?_POW?BYTE
  C:0F4FH         PUBLIC        _POW
  -------         ENDMOD        POW

  -------         MODULE        ?C?FPMUL
  C:0246H         PUBLIC        ?C?FPMUL
  -------         ENDMOD        ?C?FPMUL

  -------         MODULE        ?C?FPCMP
  C:034EH         PUBLIC        ?C?FPCMP
  C:034CH         PUBLIC        ?C?FPCMP3
  -------         ENDMOD        ?C?FPCMP

  -------         MODULE        ?C?FPNEG
  C:03B9H         PUBLIC        ?C?FPNEG
  -------         ENDMOD        ?C?FPNEG

  -------         MODULE        ?C?CASTF
  C:03CAH         PUBLIC        ?C?CASTF
  -------         ENDMOD        ?C?CASTF

  -------         MODULE        ?C?FPROUND
  C:0401H         PUBLIC        ?C?FPROUND
  -------         ENDMOD        ?C?FPROUND

  -------         MODULE        ?C?FPCONVERT
  C:043EH         PUBLIC        ?C?FPCONVERT
  -------         ENDMOD        ?C?FPCONVERT

  -------         MODULE        EXP
  C:140BH         PUBLIC        _EXP
  -------         ENDMOD        EXP

  -------         MODULE        LOG
  C:10AEH         PUBLIC        _LOG
  C:10AAH         PUBLIC        _LOG10
  -------         ENDMOD        LOG

  -------         MODULE        ?C?FTNPWR
  C:0573H         PUBLIC        ?C?FTNPWR
  -------         ENDMOD        ?C?FTNPWR

  -------         MODULE        ?C?COPY
  C:06D0H         PUBLIC        ?C?COPY
  -------         ENDMOD        ?C?COPY

  -------         MODULE        ?C?CLDPTR
  C:06F6H         PUBLIC        ?C?CLDPTR
  -------         ENDMOD        ?C?CLDPTR

  -------         MODULE        ?C?CLDOPTR
BL51 BANKED LINKER/LOCATER V4.13                                                      05/31/2014  20:56:57  PAGE 14


  C:070FH         PUBLIC        ?C?CLDOPTR
  -------         ENDMOD        ?C?CLDOPTR

  -------         MODULE        ?C?CSTPTR
  C:073CH         PUBLIC        ?C?CSTPTR
  -------         ENDMOD        ?C?CSTPTR

  -------         MODULE        ?C?CSTOPTR
  C:074EH         PUBLIC        ?C?CSTOPTR
  -------         ENDMOD        ?C?CSTOPTR

  -------         MODULE        ?C?LNEG
  C:0770H         PUBLIC        ?C?LNEG
  -------         ENDMOD        ?C?LNEG

  -------         MODULE        ?C?LLDCODE
  C:077EH         PUBLIC        ?C?LLDCODE
  -------         ENDMOD        ?C?LLDCODE

  -------         MODULE        ?C?LLDXDATA0
  C:078EH         PUBLIC        ?C?LLDXDATA0
  -------         ENDMOD        ?C?LLDXDATA0

  -------         MODULE        ?C?LLDCODE0
  C:079AH         PUBLIC        ?C?LLDCODE0
  -------         ENDMOD        ?C?LLDCODE0

  -------         MODULE        ?C?LSTXDATA
  C:07AAH         PUBLIC        ?C?LSTXDATA
  -------         ENDMOD        ?C?LSTXDATA

  -------         MODULE        ?C?LSTKXDATA
  C:07B6H         PUBLIC        ?C?LSTKXDATA
  -------         ENDMOD        ?C?LSTKXDATA

  -------         MODULE        ?C?PLDIXDATA
  C:07E7H         PUBLIC        ?C?PLDIXDATA
  -------         ENDMOD        ?C?PLDIXDATA

  -------         MODULE        ?C?PSTXDATA
  C:07FEH         PUBLIC        ?C?PSTXDATA
  -------         ENDMOD        ?C?PSTXDATA

  -------         MODULE        ?C?CCASE
  C:0807H         PUBLIC        ?C?CCASE
  -------         ENDMOD        ?C?CCASE

  -------         MODULE        PUTCHAR
  C:179AH         PUBLIC        _PUTCHAR
  -------         ENDMOD        PUTCHAR

  -------         MODULE        STRLEN
  C:1813H         PUBLIC        _STRLEN
  -------         ENDMOD        STRLEN

  -------         MODULE        ?C?MEMSET
  C:082DH         PUBLIC        ?C?MEMSET
BL51 BANKED LINKER/LOCATER V4.13                                                      05/31/2014  20:56:57  PAGE 15


  -------         ENDMOD        ?C?MEMSET

*** WARNING L16: UNCALLED SEGMENT, IGNORED FOR OVERLAY PROCESS
    SEGMENT: ?PR?SERIALPUTEND?TEST

*** WARNING L16: UNCALLED SEGMENT, IGNORED FOR OVERLAY PROCESS
    SEGMENT: ?PR?SERAILREVCHECK?TEST

*** WARNING L16: UNCALLED SEGMENT, IGNORED FOR OVERLAY PROCESS
    SEGMENT: ?PR?_SERIALREVDATA?TEST

*** WARNING L16: UNCALLED SEGMENT, IGNORED FOR OVERLAY PROCESS
    SEGMENT: ?PR?SERIALGETDATALEN?TEST

*** WARNING L16: UNCALLED SEGMENT, IGNORED FOR OVERLAY PROCESS
    SEGMENT: ?PR?SENDSMS?TEST

*** WARNING L16: UNCALLED SEGMENT, IGNORED FOR OVERLAY PROCESS
    SEGMENT: ?PR?DIALVOICECALL?TEST

*** WARNING L16: UNCALLED SEGMENT, IGNORED FOR OVERLAY PROCESS
    SEGMENT: ?PR?_CONNECTGPRS?TEST

LINK/LOCATE RUN COMPLETE.  7 WARNING(S),  0 ERROR(S)
