BL51 BANKED LINKER/LOCATER V4.13                                                        10/09/2013  13:46:01  PAGE 1


BL51 BANKED LINKER/LOCATER V4.13, INVOKED BY:
C:\KEIL\C51\BIN\BL51.EXE test.obj TO test RAMSIZE (256)


MEMORY MODEL: SMALL


INPUT MODULES INCLUDED:
  test.obj (TEST)
  C:\KEIL\C51\LIB\C51S.LIB (?C_STARTUP)
  C:\KEIL\C51\LIB\C51S.LIB (?C?SIDIV)
  C:\KEIL\C51\LIB\C51S.LIB (?C?UIDIV)


LINK MAP OF MODULE:  test (TEST)


            TYPE    BASE      LENGTH    RELOCATION   SEGMENT NAME
            -----------------------------------------------------

            * * * * * * *   D A T A   M E M O R Y   * * * * * * *
            REG     0000H     0008H     ABSOLUTE     "REG BANK 0"
            DATA    0008H     0008H     UNIT         ?DT?TEST
            IDATA   0010H     0001H     UNIT         ?STACK

            * * * * * * *   C O D E   M E M O R Y   * * * * * * *
            CODE    0000H     0003H     ABSOLUTE     
                    0003H     0008H                  *** GAP ***
            CODE    000BH     0003H     ABSOLUTE     
            CODE    000EH     00C0H     UNIT         ?PR?MAIN?TEST
            CODE    00CEH     008BH     UNIT         ?C?LIB_CODE
            CODE    0159H     0044H     UNIT         ?PR?_DISPLAY?TEST
            CODE    019DH     001CH     UNIT         ?PR?INIT?TEST
            CODE    01B9H     001BH     UNIT         ?PR?DELAY1?TEST
            CODE    01D4H     0010H     UNIT         ?CO?TEST
            CODE    01E4H     000CH     UNIT         ?C_C51STARTUP
            CODE    01F0H     0009H     UNIT         ?PR?TIMER0?TEST



OVERLAY MAP OF MODULE:   test (TEST)


SEGMENT
  +--> CALLED SEGMENT
---------------------
?C_C51STARTUP
  +--> ?PR?MAIN?TEST

?PR?MAIN?TEST
  +--> ?PR?INIT?TEST
  +--> ?PR?DELAY1?TEST
  +--> ?PR?_DISPLAY?TEST

?PR?_DISPLAY?TEST
  +--> ?CO?TEST
  +--> ?PR?DELAY1?TEST

BL51 BANKED LINKER/LOCATER V4.13                                                      10/09/2013  13:46:01  PAGE 2




SYMBOL TABLE OF MODULE:  test (TEST)

  VALUE           TYPE          NAME
  ----------------------------------

  -------         MODULE        TEST
  C:0000H         SYMBOL        _ICE_DUMMY_
  D:0080H         PUBLIC        P0
  D:0090H         PUBLIC        P1
  D:00A0H         PUBLIC        P2
  D:00B0H         PUBLIC        P3
  B:00B0H.4       PUBLIC        T0
  B:00D0H.6       PUBLIC        AC
  B:00B0H.5       PUBLIC        T1
  B:0090H.0       PUBLIC        T2
  B:00A8H.7       PUBLIC        EA
  C:01D4H         PUBLIC        table
  D:00A8H         PUBLIC        IE
  B:00C8H.6       PUBLIC        EXF2
  B:00B0H.7       PUBLIC        RD
  B:00A8H.4       PUBLIC        ES
  D:00B8H         PUBLIC        IP
  B:0098H.0       PUBLIC        RI
  D:0008H         PUBLIC        flag
  B:00B0H.2       PUBLIC        INT0
  B:00D0H.7       PUBLIC        CY
  B:0098H.1       PUBLIC        TI
  B:00B0H.3       PUBLIC        INT1
  D:0009H         PUBLIC        value
  B:00B8H.4       PUBLIC        PS
  B:0090H.1       PUBLIC        T2EX
  B:00D0H.2       PUBLIC        OV
  C:000EH         PUBLIC        main
  B:00C8H.1       PUBLIC        C_T2
  B:00B0H.6       PUBLIC        WR
  B:00A0H.6       PUBLIC        duan
  D:000AH         PUBLIC        bai
  B:00C8H.5       PUBLIC        RCLK
  B:00C8H.4       PUBLIC        TCLK
  D:0098H         PUBLIC        SCON
  D:0089H         PUBLIC        TMOD
  D:0088H         PUBLIC        TCON
  C:019DH         PUBLIC        init
  D:000BH         PUBLIC        temp
  B:0088H.1       PUBLIC        IE0
  B:0088H.3       PUBLIC        IE1
  D:000DH         PUBLIC        aa
  C:01B9H         PUBLIC        delay1
  B:00C8H.0       PUBLIC        CP_RL2
  D:000EH         PUBLIC        shi
  B:00A0H.7       PUBLIC        wei
  B:00A8H.1       PUBLIC        ET0
  B:00A8H.3       PUBLIC        ET1
  B:0088H.5       PUBLIC        TF0
  B:00A8H.5       PUBLIC        ET2
BL51 BANKED LINKER/LOCATER V4.13                                                      10/09/2013  13:46:01  PAGE 3


  B:0088H.7       PUBLIC        TF1
  D:000FH         PUBLIC        ge
  B:00C8H.7       PUBLIC        TF2
  B:0098H.2       PUBLIC        RB8
  D:008CH         PUBLIC        TH0
  B:00A8H.0       PUBLIC        EX0
  B:0088H.0       PUBLIC        IT0
  B:0098H.3       PUBLIC        TB8
  B:00A8H.2       PUBLIC        EX1
  B:0088H.2       PUBLIC        IT1
  B:00D0H.0       PUBLIC        P
  B:0098H.7       PUBLIC        SM0
  D:008AH         PUBLIC        TL0
  B:0098H.6       PUBLIC        SM1
  B:0098H.5       PUBLIC        SM2
  C:01F0H         PUBLIC        timer0
  B:00B8H.1       PUBLIC        PT0
  B:00B8H.3       PUBLIC        PT1
  B:00D0H.3       PUBLIC        RS0
  B:00B8H.5       PUBLIC        PT2
  B:0088H.4       PUBLIC        TR0
  B:00D0H.4       PUBLIC        RS1
  B:0088H.6       PUBLIC        TR1
  B:00C8H.2       PUBLIC        TR2
  B:00B8H.0       PUBLIC        PX0
  B:00B8H.2       PUBLIC        PX1
  C:0159H         PUBLIC        _display
  B:00C8H.3       PUBLIC        EXEN2
  B:0098H.4       PUBLIC        REN
  D:00C8H         PUBLIC        T2CON
  B:00B0H.0       PUBLIC        RXD
  B:00B0H.1       PUBLIC        TXD
  B:00D0H.5       PUBLIC        F0
  D:00D0H         PUBLIC        PSW
  B:00B0H.4       PUBLIC        key1
  -------         PROC          MAIN
  C:000EH         LINE#         19
  C:000EH         LINE#         20
  C:000EH         LINE#         21
  C:0011H         LINE#         23
  C:0011H         LINE#         24
  C:0011H         LINE#         25
  C:001AH         LINE#         26
  C:001AH         LINE#         27
  C:001CH         LINE#         28
  C:001FH         LINE#         29
  C:0022H         LINE#         30
  C:0025H         LINE#         31
  C:002BH         LINE#         32
  C:002BH         LINE#         33
  C:002EH         LINE#         34
  C:0031H         LINE#         35
  C:0034H         LINE#         36
  C:003AH         LINE#         37
  C:003AH         LINE#         39
  C:003DH         LINE#         40
  C:004BH         LINE#         41
BL51 BANKED LINKER/LOCATER V4.13                                                      10/09/2013  13:46:01  PAGE 4


  C:004BH         LINE#         42
  C:004BH         LINE#         43
  C:0052H         LINE#         44
  C:0059H         LINE#         45
  C:005EH         LINE#         46
  C:005EH         LINE#         47
  C:005EH         LINE#         48
  C:0064H         LINE#         49
  C:0064H         LINE#         50
  C:0067H         LINE#         51
  C:006AH         LINE#         52
  C:006CH         LINE#         53
  C:006CH         LINE#         55
  C:006CH         LINE#         56
  C:0076H         LINE#         57
  C:0076H         LINE#         58
  C:007BH         LINE#         59
  C:007BH         LINE#         60
  C:0088H         LINE#         61
  C:00A2H         LINE#         62
  C:00AFH         LINE#         63
  C:00B3H         LINE#         64
  C:00BBH         LINE#         65
  C:00BBH         LINE#         66
  C:00BFH         LINE#         67
  C:00C2H         LINE#         68
  C:00C2H         LINE#         69
  C:00CBH         LINE#         70
  -------         ENDPROC       MAIN
  -------         PROC          INIT
  C:019DH         LINE#         73
  C:019DH         LINE#         74
  C:019DH         LINE#         75
  C:019FH         LINE#         76
  C:01A1H         LINE#         77
  C:01A6H         LINE#         78
  C:01A9H         LINE#         80
  C:01ACH         LINE#         81
  C:01AFH         LINE#         82
  C:01B2H         LINE#         83
  C:01B4H         LINE#         84
  C:01B6H         LINE#         85
  C:01B8H         LINE#         86
  -------         ENDPROC       INIT
  -------         PROC          DELAY1
  -------         DO            DELAY1
  D:0006H         SYMBOL        i
  D:0004H         SYMBOL        j
  -------         ENDDO         j
  C:01B9H         LINE#         88
  C:01B9H         LINE#         89
  C:01B9H         LINE#         91
  C:01BDH         LINE#         92
  C:01D3H         LINE#         93
  -------         ENDPROC       DELAY1
  -------         PROC          _DISPLAY
  D:0007H         SYMBOL        sec
BL51 BANKED LINKER/LOCATER V4.13                                                      10/09/2013  13:46:01  PAGE 5


  D:0002H         SYMBOL        shi
  D:0003H         SYMBOL        ge
  C:0159H         LINE#         95
  C:015BH         LINE#         96
  C:015BH         LINE#         97
  C:015DH         LINE#         98
  C:0164H         LINE#         99
  C:0166H         LINE#         100
  C:0169H         LINE#         101
  C:016BH         LINE#         102
  C:016EH         LINE#         103
  C:0170H         LINE#         104
  C:0173H         LINE#         106
  C:0175H         LINE#         107
  C:0179H         LINE#         108
  C:017BH         LINE#         109
  C:017EH         LINE#         110
  C:0180H         LINE#         111
  C:0183H         LINE#         112
  C:0185H         LINE#         113
  C:0188H         LINE#         115
  C:018AH         LINE#         116
  C:018EH         LINE#         117
  C:0190H         LINE#         118
  C:0193H         LINE#         119
  C:0195H         LINE#         120
  C:0198H         LINE#         121
  C:019AH         LINE#         122
  -------         ENDPROC       _DISPLAY
  -------         PROC          TIMER0
  C:01F0H         LINE#         126
  C:01F0H         LINE#         128
  C:01F3H         LINE#         129
  C:01F6H         LINE#         130
  C:01F8H         LINE#         131
  -------         ENDPROC       TIMER0
  -------         ENDMOD        TEST

  -------         MODULE        ?C?SIDIV
  C:00CEH         PUBLIC        ?C?SIDIV
  -------         ENDMOD        ?C?SIDIV

  -------         MODULE        ?C?UIDIV
  C:0104H         PUBLIC        ?C?UIDIV
  -------         ENDMOD        ?C?UIDIV

LINK/LOCATE RUN COMPLETE.  0 WARNING(S),  0 ERROR(S)
